target datalayout = "e-m:e-p270:32:32-p271:32:32-p272:64:64-i64:64-i128:128-f80:128-n8:16:32:64-S128"
target triple = "x86_64-unknown-linux-gnu"

%"union.absl::lts_20230802::internal_any_invocable::TypeErasedState" = type { %struct.anon }
%struct.anon = type { ptr, i64 }
%"class.absl::lts_20230802::AnyInvocable.6" = type { %"class.absl::lts_20230802::internal_any_invocable::Impl.7" }
%"class.absl::lts_20230802::internal_any_invocable::Impl.7" = type { %"class.absl::lts_20230802::internal_any_invocable::CoreImpl.8" }
%"class.absl::lts_20230802::internal_any_invocable::CoreImpl.8" = type { %"union.absl::lts_20230802::internal_any_invocable::TypeErasedState", ptr, ptr }
%"class.absl::lts_20230802::Mutex" = type { %"struct.std::atomic" }
%"struct.std::atomic" = type { %"struct.std::__atomic_base" }
%"struct.std::__atomic_base" = type { i64 }
%"class.std::__shared_count" = type { ptr }
%"class.grpc_event_engine::experimental::PosixEventEngine" = type { %"class.grpc_event_engine::experimental::PosixEventEngineWithFdSupport", %"class.std::vector", %"struct.std::atomic", %"class.absl::lts_20230802::Mutex", %"class.absl::lts_20230802::flat_hash_set", %"struct.std::atomic", %"class.std::shared_ptr.44", %"class.std::shared_ptr.47", %"class.std::shared_ptr.50" }
%"class.grpc_event_engine::experimental::PosixEventEngineWithFdSupport" = type { %"class.grpc_event_engine::experimental::EventEngine" }
%"class.grpc_event_engine::experimental::EventEngine" = type { ptr, %"class.std::enable_shared_from_this" }
%"class.std::enable_shared_from_this" = type { %"class.std::weak_ptr" }
%"class.std::weak_ptr" = type { %"class.std::__weak_ptr" }
%"class.std::__weak_ptr" = type { ptr, %"class.std::__weak_count" }
%"class.std::__weak_count" = type { ptr }
%"class.std::vector" = type { %"struct.std::_Vector_base" }
%"struct.std::_Vector_base" = type { %"struct.std::_Vector_base<grpc_event_engine::experimental::PosixEventEngine::ConnectionShard, std::allocator<grpc_event_engine::experimental::PosixEventEngine::ConnectionShard>>::_Vector_impl" }
%"struct.std::_Vector_base<grpc_event_engine::experimental::PosixEventEngine::ConnectionShard, std::allocator<grpc_event_engine::experimental::PosixEventEngine::ConnectionShard>>::_Vector_impl" = type { %"struct.std::_Vector_base<grpc_event_engine::experimental::PosixEventEngine::ConnectionShard, std::allocator<grpc_event_engine::experimental::PosixEventEngine::ConnectionShard>>::_Vector_impl_data" }
%"struct.std::_Vector_base<grpc_event_engine::experimental::PosixEventEngine::ConnectionShard, std::allocator<grpc_event_engine::experimental::PosixEventEngine::ConnectionShard>>::_Vector_impl_data" = type { ptr, ptr, ptr }
%"class.absl::lts_20230802::flat_hash_set" = type { %"class.absl::lts_20230802::container_internal::raw_hash_set" }
%"class.absl::lts_20230802::container_internal::raw_hash_set" = type { %"class.absl::lts_20230802::container_internal::CompressedTuple" }
%"class.absl::lts_20230802::container_internal::CompressedTuple" = type { %"struct.absl::lts_20230802::container_internal::internal_compressed_tuple::CompressedTupleImpl" }
%"struct.absl::lts_20230802::container_internal::internal_compressed_tuple::CompressedTupleImpl" = type { %"struct.absl::lts_20230802::container_internal::internal_compressed_tuple::Storage" }
%"struct.absl::lts_20230802::container_internal::internal_compressed_tuple::Storage" = type { %"class.absl::lts_20230802::container_internal::CommonFields" }
%"class.absl::lts_20230802::container_internal::CommonFields" = type { ptr, ptr, i64, %"class.absl::lts_20230802::container_internal::CompressedTuple.34" }
%"class.absl::lts_20230802::container_internal::CompressedTuple.34" = type { %"struct.absl::lts_20230802::container_internal::internal_compressed_tuple::CompressedTupleImpl.35" }
%"struct.absl::lts_20230802::container_internal::internal_compressed_tuple::CompressedTupleImpl.35" = type { %"struct.absl::lts_20230802::container_internal::internal_compressed_tuple::Storage.36" }
%"struct.absl::lts_20230802::container_internal::internal_compressed_tuple::Storage.36" = type { i64 }
%"class.std::shared_ptr.44" = type { %"class.std::__shared_ptr.45" }
%"class.std::__shared_ptr.45" = type { ptr, %"class.std::__shared_count" }
%"class.std::shared_ptr.47" = type { %"class.std::__shared_ptr.48" }
%"class.std::__shared_ptr.48" = type { ptr, %"class.std::__shared_count" }
%"class.std::shared_ptr.50" = type { %"class.std::__shared_ptr.51" }
%"class.std::__shared_ptr.51" = type { ptr, %"class.std::__shared_count" }

; Function Attrs: mustprogress nounwind uwtable
define linkonce_odr void @_ZN4absl12lts_2023080222internal_any_invocable8CoreImplILb0EvJEED2Ev(ptr noundef nonnull align 16 dereferenceable(32) %this) unnamed_addr #5 comdat align 2 {
entry:
  %this.addr = alloca ptr, align 8
  store ptr %this, ptr %this.addr, align 8
  %this1 = load ptr, ptr %this.addr, align 8
  %manager_ = getelementptr inbounds %"class.absl::lts_20230802::internal_any_invocable::CoreImpl.8", ptr %this1, i32 0, i32 1
  %0 = load ptr, ptr %manager_, align 16
  %state_ = getelementptr inbounds %"class.absl::lts_20230802::internal_any_invocable::CoreImpl.8", ptr %this1, i32 0, i32 0
  %state_2 = getelementptr inbounds %"class.absl::lts_20230802::internal_any_invocable::CoreImpl.8", ptr %this1, i32 0, i32 0
  call void %0(i1 noundef zeroext true, ptr noundef %state_, ptr noundef %state_2) #3
  ret void
}

; Function Attrs: mustprogress nounwind uwtable
define linkonce_odr void @_ZN4absl12lts_2023080222internal_any_invocable8CoreImplILb0EvJEEC2EOS3_(ptr noundef nonnull align 16 dereferenceable(32) %this, ptr noundef nonnull align 16 dereferenceable(32) %other) unnamed_addr #5 comdat align 2 {
entry:
  %this.addr = alloca ptr, align 8
  %other.addr = alloca ptr, align 8
  store ptr %this, ptr %this.addr, align 8
  store ptr %other, ptr %other.addr, align 8
  %this1 = load ptr, ptr %this.addr, align 8
  %0 = load ptr, ptr %other.addr, align 8
  %manager_ = getelementptr inbounds %"class.absl::lts_20230802::internal_any_invocable::CoreImpl.8", ptr %0, i32 0, i32 1
  %1 = load ptr, ptr %manager_, align 16
  %2 = load ptr, ptr %other.addr, align 8
  %state_2 = getelementptr inbounds %"class.absl::lts_20230802::internal_any_invocable::CoreImpl.8", ptr %2, i32 0, i32 0
  %state_3 = getelementptr inbounds %"class.absl::lts_20230802::internal_any_invocable::CoreImpl.8", ptr %this1, i32 0, i32 0
  call void %1(i1 noundef zeroext false, ptr noundef %state_2, ptr noundef %state_3) #3
  %3 = load ptr, ptr %other.addr, align 8
  %manager_4 = getelementptr inbounds %"class.absl::lts_20230802::internal_any_invocable::CoreImpl.8", ptr %3, i32 0, i32 1
  %4 = load ptr, ptr %manager_4, align 16
  %manager_5 = getelementptr inbounds %"class.absl::lts_20230802::internal_any_invocable::CoreImpl.8", ptr %this1, i32 0, i32 1
  store ptr %4, ptr %manager_5, align 16
  %5 = load ptr, ptr %other.addr, align 8
  %invoker_ = getelementptr inbounds %"class.absl::lts_20230802::internal_any_invocable::CoreImpl.8", ptr %5, i32 0, i32 2
  %6 = load ptr, ptr %invoker_, align 8
  %invoker_6 = getelementptr inbounds %"class.absl::lts_20230802::internal_any_invocable::CoreImpl.8", ptr %this1, i32 0, i32 2
  store ptr %6, ptr %invoker_6, align 8
  %7 = load ptr, ptr %other.addr, align 8
  %manager_7 = getelementptr inbounds %"class.absl::lts_20230802::internal_any_invocable::CoreImpl.8", ptr %7, i32 0, i32 1
  store ptr @_ZN4absl12lts_2023080222internal_any_invocable12EmptyManagerENS1_14FunctionToCallEPNS1_15TypeErasedStateES4_, ptr %manager_7, align 16
  %8 = load ptr, ptr %other.addr, align 8
  %invoker_8 = getelementptr inbounds %"class.absl::lts_20230802::internal_any_invocable::CoreImpl.8", ptr %8, i32 0, i32 2
  store ptr null, ptr %invoker_8, align 8
  ret void
}

; Function Attrs: mustprogress nounwind uwtable
define linkonce_odr noundef ptr @_ZNKSt12__shared_ptrIN17grpc_event_engine12experimental10ThreadPoolELN9__gnu_cxx12_Lock_policyE2EE3getEv(ptr noundef nonnull align 8 dereferenceable(16) %this) #5 comdat align 2 {
entry:
  %this.addr = alloca ptr, align 8
  store ptr %this, ptr %this.addr, align 8
  %this1 = load ptr, ptr %this.addr, align 8
  %_M_ptr = getelementptr inbounds %"class.std::__shared_ptr.45", ptr %this1, i32 0, i32 0
  %0 = load ptr, ptr %_M_ptr, align 8
  ret ptr %0
}

; Function Attrs: mustprogress nounwind uwtable
define linkonce_odr void @_ZN4absl12lts_2023080222internal_any_invocable4ImplIFvvEED2Ev(ptr noundef nonnull align 16 dereferenceable(32) %this) unnamed_addr #5 comdat align 2 {
entry:
  %this.addr = alloca ptr, align 8
  store ptr %this, ptr %this.addr, align 8
  %this1 = load ptr, ptr %this.addr, align 8
  call void @_ZN4absl12lts_2023080222internal_any_invocable8CoreImplILb0EvJEED2Ev(ptr noundef nonnull align 16 dereferenceable(32) %this1) #3
  ret void
}

; Function Attrs: mustprogress nounwind uwtable
define linkonce_odr void @_ZN4absl12lts_2023080222internal_any_invocable4ImplIFvvEEC2EOS4_(ptr noundef nonnull align 16 dereferenceable(32) %this, ptr noundef nonnull align 16 dereferenceable(32) %0) unnamed_addr #5 comdat align 2 {
entry:
  %this.addr = alloca ptr, align 8
  %.addr = alloca ptr, align 8
  store ptr %this, ptr %this.addr, align 8
  store ptr %0, ptr %.addr, align 8
  %this1 = load ptr, ptr %this.addr, align 8
  %1 = load ptr, ptr %.addr, align 8
  call void @_ZN4absl12lts_2023080222internal_any_invocable8CoreImplILb0EvJEEC2EOS3_(ptr noundef nonnull align 16 dereferenceable(32) %this1, ptr noundef nonnull align 16 dereferenceable(32) %1) #3
  ret void
}

; Function Attrs: mustprogress nounwind uwtable
define linkonce_odr noundef ptr @_ZNKSt19__shared_ptr_accessIN17grpc_event_engine12experimental10ThreadPoolELN9__gnu_cxx12_Lock_policyE2ELb0ELb0EE6_M_getEv(ptr noundef nonnull align 1 dereferenceable(1) %this) #5 comdat align 2 {
entry:
  %this.addr = alloca ptr, align 8
  store ptr %this, ptr %this.addr, align 8
  %this1 = load ptr, ptr %this.addr, align 8
  %call = call noundef ptr @_ZNKSt12__shared_ptrIN17grpc_event_engine12experimental10ThreadPoolELN9__gnu_cxx12_Lock_policyE2EE3getEv(ptr noundef nonnull align 8 dereferenceable(16) %this1) #3
  ret ptr %call
}

; Function Attrs: mustprogress nounwind uwtable
define linkonce_odr void @_ZN4absl12lts_2023080212AnyInvocableIFvvEED2Ev(ptr noundef nonnull align 16 dereferenceable(32) %this) unnamed_addr #5 comdat align 2 {
entry:
  %this.addr = alloca ptr, align 8
  store ptr %this, ptr %this.addr, align 8
  %this1 = load ptr, ptr %this.addr, align 8
  call void @_ZN4absl12lts_2023080222internal_any_invocable4ImplIFvvEED2Ev(ptr noundef nonnull align 16 dereferenceable(32) %this1) #3
  ret void
}

; Function Attrs: mustprogress nounwind uwtable
define linkonce_odr void @_ZN4absl12lts_2023080212AnyInvocableIFvvEEC2EOS3_(ptr noundef nonnull align 16 dereferenceable(32) %this, ptr noundef nonnull align 16 dereferenceable(32) %0) unnamed_addr #5 comdat align 2 {
entry:
  %this.addr = alloca ptr, align 8
  %.addr = alloca ptr, align 8
  store ptr %this, ptr %this.addr, align 8
  store ptr %0, ptr %.addr, align 8
  %this1 = load ptr, ptr %this.addr, align 8
  %1 = load ptr, ptr %.addr, align 8
  call void @_ZN4absl12lts_2023080222internal_any_invocable4ImplIFvvEEC2EOS4_(ptr noundef nonnull align 16 dereferenceable(32) %this1, ptr noundef nonnull align 16 dereferenceable(32) %1) #3
  ret void
}

; Function Attrs: mustprogress nounwind uwtable
define linkonce_odr noundef ptr @_ZNKSt19__shared_ptr_accessIN17grpc_event_engine12experimental10ThreadPoolELN9__gnu_cxx12_Lock_policyE2ELb0ELb0EEptEv(ptr noundef nonnull align 1 dereferenceable(1) %this) #5 comdat align 2 {
entry:
  %this.addr = alloca ptr, align 8
  store ptr %this, ptr %this.addr, align 8
  %this1 = load ptr, ptr %this.addr, align 8
  %call = call noundef ptr @_ZNKSt19__shared_ptr_accessIN17grpc_event_engine12experimental10ThreadPoolELN9__gnu_cxx12_Lock_policyE2ELb0ELb0EE6_M_getEv(ptr noundef nonnull align 1 dereferenceable(1) %this1) #3
  ret ptr %call
}

; Function Attrs: mustprogress uwtable
define void @_ZN17grpc_event_engine12experimental16PosixEventEngine3RunEN4absl12lts_2023080212AnyInvocableIFvvEEE(ptr noundef nonnull align 8 dereferenceable(152) %this, ptr noundef %closure) unnamed_addr #4 align 2 personality ptr @__gxx_personality_v0 {
entry:
  %this.addr = alloca ptr, align 8
  %closure.indirect_addr = alloca ptr, align 8
  %agg.tmp = alloca %"class.absl::lts_20230802::AnyInvocable.6", align 16
  %exn.slot = alloca ptr, align 8
  %ehselector.slot = alloca i32, align 4
  store ptr %this, ptr %this.addr, align 8
  store ptr %closure, ptr %closure.indirect_addr, align 8
  %this1 = load ptr, ptr %this.addr, align 8
  %executor_ = getelementptr inbounds %"class.grpc_event_engine::experimental::PosixEventEngine", ptr %this1, i32 0, i32 6
  %call = call noundef ptr @_ZNKSt19__shared_ptr_accessIN17grpc_event_engine12experimental10ThreadPoolELN9__gnu_cxx12_Lock_policyE2ELb0ELb0EEptEv(ptr noundef nonnull align 1 dereferenceable(1) %executor_) #3
  call void @_ZN4absl12lts_2023080212AnyInvocableIFvvEEC2EOS3_(ptr noundef nonnull align 16 dereferenceable(32) %agg.tmp, ptr noundef nonnull align 16 dereferenceable(32) %closure) #3
  %vtable = load ptr, ptr %call, align 8
  %vfn = getelementptr inbounds ptr, ptr %vtable, i64 6
  %0 = load ptr, ptr %vfn, align 8
  invoke void %0(ptr noundef nonnull align 8 dereferenceable(8) %call, ptr noundef %agg.tmp)
          to label %invoke.cont unwind label %lpad

invoke.cont:                                      ; preds = %entry
  call void @_ZN4absl12lts_2023080212AnyInvocableIFvvEED2Ev(ptr noundef nonnull align 16 dereferenceable(32) %agg.tmp) #3
  ret void

lpad:                                             ; preds = %entry
  %1 = landingpad { ptr, i32 }
          cleanup
  %2 = extractvalue { ptr, i32 } %1, 0
  store ptr %2, ptr %exn.slot, align 8
  %3 = extractvalue { ptr, i32 } %1, 1
  store i32 %3, ptr %ehselector.slot, align 4
  call void @_ZN4absl12lts_2023080212AnyInvocableIFvvEED2Ev(ptr noundef nonnull align 16 dereferenceable(32) %agg.tmp) #3
  br label %eh.resume

eh.resume:                                        ; preds = %lpad
  %exn = load ptr, ptr %exn.slot, align 8
  %sel = load i32, ptr %ehselector.slot, align 4
  %lpad.val = insertvalue { ptr, i32 } poison, ptr %exn, 0
  %lpad.val2 = insertvalue { ptr, i32 } %lpad.val, i32 %sel, 1
  resume { ptr, i32 } %lpad.val2
}